target datalayout = "e-m:e-p270:32:32-p271:32:32-p272:64:64-i64:64-i128:128-f80:128-n8:16:32:64-S128"
target triple = "x86_64-pc-linux-gnu"

%union.pthread_mutex_t = type { %struct.__pthread_mutex_s }
%struct.__pthread_mutex_s = type { i32, i32, i32, i32, i32, i16, i16, %struct.__pthread_internal_list }
%struct.__pthread_internal_list = type { ptr, ptr }
%struct.SessionRow = type { i32, i32, [3 x %struct.WOLFSSL_SESSION] }
%struct.WOLFSSL_SESSION = type { i32, i32, %struct.wolfSSL_RefWithMutex, [32 x i8], i8, ptr, i8, i32, i32, [32 x i8], i8, [48 x i8], i16, i8, i8, i16, [20 x i8], i16, i8 }
%struct.wolfSSL_RefWithMutex = type { %union.pthread_mutex_t, i32 }
%struct.ClientRow = type { i32, i32, [24 x %struct.ClientSession] }
%struct.ClientSession = type { i16, i16, i32 }

@session_lock = internal global %union.pthread_mutex_t zeroinitializer, align 8
@SessionCache = internal global [11 x %struct.SessionRow] zeroinitializer, align 16
@clisession_mutex = internal global %union.pthread_mutex_t zeroinitializer, align 8
@ClientCache = internal global [88 x %struct.ClientRow] zeroinitializer, align 16

; Function Attrs: inlinehint nounwind uwtable
define internal i32 @MakeWordFromHash(ptr noundef %0) #4 {
  %2 = alloca ptr, align 8
  store ptr %0, ptr %2, align 8, !tbaa !21
  %3 = load ptr, ptr %2, align 8, !tbaa !21
  %4 = getelementptr inbounds i8, ptr %3, i64 0
  %5 = load i8, ptr %4, align 1, !tbaa !20
  %6 = zext i8 %5 to i32
  %7 = shl i32 %6, 24
  %8 = load ptr, ptr %2, align 8, !tbaa !21
  %9 = getelementptr inbounds i8, ptr %8, i64 1
  %10 = load i8, ptr %9, align 1, !tbaa !20
  %11 = zext i8 %10 to i32
  %12 = shl i32 %11, 16
  %13 = or i32 %7, %12
  %14 = load ptr, ptr %2, align 8, !tbaa !21
  %15 = getelementptr inbounds i8, ptr %14, i64 2
  %16 = load i8, ptr %15, align 1, !tbaa !20
  %17 = zext i8 %16 to i32
  %18 = shl i32 %17, 8
  %19 = or i32 %13, %18
  %20 = load ptr, ptr %2, align 8, !tbaa !21
  %21 = getelementptr inbounds i8, ptr %20, i64 3
  %22 = load i8, ptr %21, align 1, !tbaa !20
  %23 = zext i8 %22 to i32
  %24 = or i32 %19, %23
  ret i32 %24
}

; Function Attrs: inlinehint nounwind uwtable
define internal i32 @HashObject(ptr noundef %0, i32 noundef %1, ptr noundef %2) #4 {
  %4 = alloca ptr, align 8
  %5 = alloca i32, align 4
  %6 = alloca ptr, align 8
  %7 = alloca [64 x i8], align 16
  store ptr %0, ptr %4, align 8, !tbaa !21
  store i32 %1, ptr %5, align 4, !tbaa !7
  store ptr %2, ptr %6, align 8, !tbaa !92
  call void @llvm.lifetime.start.p0(i64 64, ptr %7) #9
  %8 = load ptr, ptr %4, align 8, !tbaa !21
  %9 = load i32, ptr %5, align 4, !tbaa !7
  %10 = getelementptr inbounds [64 x i8], ptr %7, i64 0, i64 0
  %11 = call i32 @wc_Md5Hash(ptr noundef %8, i32 noundef %9, ptr noundef %10)
  %12 = load ptr, ptr %6, align 8, !tbaa !92
  store i32 %11, ptr %12, align 4, !tbaa !7
  %13 = load ptr, ptr %6, align 8, !tbaa !92
  %14 = load i32, ptr %13, align 4, !tbaa !7
  %15 = icmp eq i32 %14, 0
  br i1 %15, label %16, label %19

16:                                               ; preds = %3
  %17 = getelementptr inbounds [64 x i8], ptr %7, i64 0, i64 0
  %18 = call i32 @MakeWordFromHash(ptr noundef %17)
  br label %20

19:                                               ; preds = %3
  br label %20

20:                                               ; preds = %19, %16
  %21 = phi i32 [ %18, %16 ], [ 0, %19 ]
  call void @llvm.lifetime.end.p0(i64 64, ptr %7) #9
  ret i32 %21
}

; Function Attrs: nounwind uwtable
define ptr @ClientSessionToSession(ptr noundef %0) #0 {
  %2 = alloca ptr, align 8
  %3 = alloca ptr, align 8
  %4 = alloca ptr, align 8
  %5 = alloca ptr, align 8
  %6 = alloca ptr, align 8
  %7 = alloca i32, align 4
  %8 = alloca i32, align 4
  %9 = alloca i32, align 4
  store ptr %0, ptr %3, align 8, !tbaa !53
  br label %10

10:                                               ; preds = %1
  br label %11

11:                                               ; preds = %10
  %12 = load ptr, ptr %3, align 8, !tbaa !53
  %13 = icmp eq ptr %12, null
  br i1 %13, label %14, label %15

14:                                               ; preds = %11
  store ptr null, ptr %2, align 8
  br label %130

15:                                               ; preds = %11
  %16 = load ptr, ptr %3, align 8, !tbaa !53
  %17 = icmp uge ptr %16, @ClientCache
  br i1 %17, label %18, label %128

18:                                               ; preds = %15
  %19 = load ptr, ptr %3, align 8, !tbaa !53
  %20 = icmp ult ptr %19, getelementptr inbounds nuw (i8, ptr @ClientCache, i64 17600)
  br i1 %20, label %21, label %128

21:                                               ; preds = %18
  call void @llvm.lifetime.start.p0(i64 8, ptr %4) #9
  %22 = load ptr, ptr %3, align 8, !tbaa !53
  store ptr %22, ptr %4, align 8, !tbaa !107
  call void @llvm.lifetime.start.p0(i64 8, ptr %5) #9
  store ptr null, ptr %5, align 8, !tbaa !97
  call void @llvm.lifetime.start.p0(i64 8, ptr %6) #9
  store ptr null, ptr %6, align 8, !tbaa !53
  call void @llvm.lifetime.start.p0(i64 4, ptr %7) #9
  store i32 0, ptr %7, align 4, !tbaa !7
  call void @llvm.lifetime.start.p0(i64 4, ptr %8) #9
  store i32 0, ptr %8, align 4, !tbaa !7
  store ptr null, ptr %3, align 8, !tbaa !53
  %23 = call i32 @wc_LockMutex(ptr noundef @clisession_mutex)
  %24 = icmp ne i32 %23, 0
  br i1 %24, label %25, label %29

25:                                               ; preds = %21
  br label %26

26:                                               ; preds = %25
  br label %27

27:                                               ; preds = %26
  br label %28

28:                                               ; preds = %27
  store ptr null, ptr %2, align 8
  store i32 1, ptr %9, align 4
  br label %127

29:                                               ; preds = %21
  %30 = load ptr, ptr %4, align 8, !tbaa !107
  %31 = getelementptr inbounds nuw %struct.ClientSession, ptr %30, i32 0, i32 0
  %32 = load i16, ptr %31, align 4, !tbaa !118
  %33 = zext i16 %32 to i32
  %34 = icmp sge i32 %33, 11
  br i1 %34, label %41, label %35

35:                                               ; preds = %29
  %36 = load ptr, ptr %4, align 8, !tbaa !107
  %37 = getelementptr inbounds nuw %struct.ClientSession, ptr %36, i32 0, i32 1
  %38 = load i16, ptr %37, align 2, !tbaa !120
  %39 = zext i16 %38 to i32
  %40 = icmp sge i32 %39, 3
  br i1 %40, label %41, label %45

41:                                               ; preds = %35, %29
  br label %42

42:                                               ; preds = %41
  br label %43

43:                                               ; preds = %42
  br label %44

44:                                               ; preds = %43
  store i32 -1, ptr %8, align 4, !tbaa !7
  br label %45

45:                                               ; preds = %44, %35
  %46 = load i32, ptr %8, align 4, !tbaa !7
  %47 = icmp eq i32 %46, 0
  br i1 %47, label %48, label %62

48:                                               ; preds = %45
  %49 = load ptr, ptr %4, align 8, !tbaa !107
  %50 = getelementptr inbounds nuw %struct.ClientSession, ptr %49, i32 0, i32 0
  %51 = load i16, ptr %50, align 4, !tbaa !118
  %52 = zext i16 %51 to i64
  %53 = getelementptr inbounds nuw [11 x %struct.SessionRow], ptr @SessionCache, i64 0, i64 %52
  store ptr %53, ptr %5, align 8, !tbaa !97
  fence seq_cst
  %54 = call i32 @wc_LockRwLock_Rd(ptr noundef @session_lock)
  store i32 %54, ptr %8, align 4, !tbaa !7
  %55 = load i32, ptr %8, align 4, !tbaa !7
  %56 = icmp ne i32 %55, 0
  br i1 %56, label %57, label %61

57:                                               ; preds = %48
  br label %58

58:                                               ; preds = %57
  br label %59

59:                                               ; preds = %58
  br label %60

60:                                               ; preds = %59
  store ptr null, ptr %5, align 8, !tbaa !97
  br label %61

61:                                               ; preds = %60, %48
  br label %62

62:                                               ; preds = %61, %45
  %63 = load i32, ptr %8, align 4, !tbaa !7
  %64 = icmp eq i32 %63, 0
  br i1 %64, label %65, label %86

65:                                               ; preds = %62
  %66 = load ptr, ptr %5, align 8, !tbaa !97
  %67 = getelementptr inbounds nuw %struct.SessionRow, ptr %66, i32 0, i32 2
  %68 = load ptr, ptr %4, align 8, !tbaa !107
  %69 = getelementptr inbounds nuw %struct.ClientSession, ptr %68, i32 0, i32 1
  %70 = load i16, ptr %69, align 2, !tbaa !120
  %71 = zext i16 %70 to i64
  %72 = getelementptr inbounds nuw [3 x %struct.WOLFSSL_SESSION], ptr %67, i64 0, i64 %71
  store ptr %72, ptr %6, align 8, !tbaa !53
  fence seq_cst
  %73 = load ptr, ptr %6, align 8, !tbaa !53
  %74 = icmp ne ptr %73, null
  br i1 %74, label %75, label %85

75:                                               ; preds = %65
  %76 = load ptr, ptr %6, align 8, !tbaa !53
  %77 = getelementptr inbounds nuw %struct.WOLFSSL_SESSION, ptr %76, i32 0, i32 10
  %78 = load i8, ptr %77, align 4, !tbaa !55
  %79 = zext i8 %78 to i32
  %80 = icmp eq i32 %79, 0
  br i1 %80, label %81, label %85

81:                                               ; preds = %75
  store ptr null, ptr %6, align 8, !tbaa !53
  br label %82

82:                                               ; preds = %81
  br label %83

83:                                               ; preds = %82
  br label %84

84:                                               ; preds = %83
  store i32 -1, ptr %8, align 4, !tbaa !7
  br label %85

85:                                               ; preds = %84, %75, %65
  br label %86

86:                                               ; preds = %85, %62
  %87 = load i32, ptr %8, align 4, !tbaa !7
  %88 = icmp eq i32 %87, 0
  br i1 %88, label %89, label %94

89:                                               ; preds = %86
  %90 = load ptr, ptr %6, align 8, !tbaa !53
  %91 = getelementptr inbounds nuw %struct.WOLFSSL_SESSION, ptr %90, i32 0, i32 9
  %92 = getelementptr inbounds [32 x i8], ptr %91, i64 0, i64 0
  %93 = call i32 @HashObject(ptr noundef %92, i32 noundef 32, ptr noundef %8)
  store i32 %93, ptr %7, align 4, !tbaa !7
  br label %94

94:                                               ; preds = %89, %86
  %95 = load i32, ptr %8, align 4, !tbaa !7
  %96 = icmp eq i32 %95, 0
  br i1 %96, label %97, label %111

97:                                               ; preds = %94
  %98 = load ptr, ptr %4, align 8, !tbaa !107
  %99 = getelementptr inbounds nuw %struct.ClientSession, ptr %98, i32 0, i32 2
  %100 = load i32, ptr %99, align 4, !tbaa !130
  %101 = load i32, ptr %7, align 4, !tbaa !7
  %102 = icmp ne i32 %100, %101
  %103 = zext i1 %102 to i32
  store i32 %103, ptr %8, align 4, !tbaa !7
  %104 = load i32, ptr %8, align 4, !tbaa !7
  %105 = icmp ne i32 %104, 0
  br i1 %105, label %106, label %110

106:                                              ; preds = %97
  br label %107

107:                                              ; preds = %106
  br label %108

108:                                              ; preds = %107
  br label %109

109:                                              ; preds = %108
  br label %110

110:                                              ; preds = %109, %97
  br label %111

111:                                              ; preds = %110, %94
  %112 = load i32, ptr %8, align 4, !tbaa !7
  %113 = icmp eq i32 %112, 0
  br i1 %113, label %114, label %119

114:                                              ; preds = %111
  %115 = load ptr, ptr %6, align 8, !tbaa !53
  store ptr %115, ptr %3, align 8, !tbaa !53
  br label %116

116:                                              ; preds = %114
  br label %117

117:                                              ; preds = %116
  br label %118

118:                                              ; preds = %117
  br label %119

119:                                              ; preds = %118, %111
  %120 = load ptr, ptr %5, align 8, !tbaa !97
  %121 = icmp ne ptr %120, null
  br i1 %121, label %122, label %124

122:                                              ; preds = %119
  %123 = call i32 @wc_UnLockRwLock(ptr noundef @session_lock)
  br label %124

124:                                              ; preds = %122, %119
  %125 = call i32 @wc_UnLockMutex(ptr noundef @clisession_mutex)
  %126 = load ptr, ptr %3, align 8, !tbaa !53
  store ptr %126, ptr %2, align 8
  store i32 1, ptr %9, align 4
  br label %127

127:                                              ; preds = %124, %28
  call void @llvm.lifetime.end.p0(i64 4, ptr %8) #9
  call void @llvm.lifetime.end.p0(i64 4, ptr %7) #9
  call void @llvm.lifetime.end.p0(i64 8, ptr %6) #9
  call void @llvm.lifetime.end.p0(i64 8, ptr %5) #9
  call void @llvm.lifetime.end.p0(i64 8, ptr %4) #9
  br label %130

128:                                              ; preds = %18, %15
  %129 = load ptr, ptr %3, align 8, !tbaa !53
  store ptr %129, ptr %2, align 8
  br label %130

130:                                              ; preds = %128, %127, %14
  %131 = load ptr, ptr %2, align 8
  ret ptr %131
}