; Function Attrs: nounwind uwtable
define ptr @ClientSessionToSession(ptr noundef readonly captures(address, ret: address, provenance) %0) local_unnamed_addr #0 {
  %2 = alloca [64 x i8], align 16
  %3 = icmp eq ptr %0, null
  br i1 %3, label %55, label %4

4:                                                ; preds = %1
  %5 = icmp uge ptr %0, @ClientCache
  %6 = icmp ult ptr %0, getelementptr inbounds nuw (i8, ptr @ClientCache, i64 17600)
  %or.cond = select i1 %5, i1 %6, i1 false
  br i1 %or.cond, label %7, label %55

7:                                                ; preds = %4
  %8 = tail call i32 @wc_LockMutex(ptr noundef nonnull @clisession_mutex) #22
  %.not = icmp eq i32 %8, 0
  br i1 %.not, label %9, label %55

9:                                                ; preds = %7
  %10 = load i16, ptr %0, align 4, !tbaa !100
  %11 = icmp ugt i16 %10, 10
  br i1 %11, label %.thread62, label %12

12:                                               ; preds = %9
  %13 = getelementptr inbounds nuw i8, ptr %0, i64 2
  %14 = load i16, ptr %13, align 2, !tbaa !102
  %15 = icmp ugt i16 %14, 2
  br i1 %15, label %.thread62, label %16

16:                                               ; preds = %12
  fence seq_cst
  %17 = tail call i32 @wc_LockRwLock_Rd(ptr noundef nonnull @session_lock) #22
  %18 = icmp eq i32 %17, 0
  br i1 %18, label %19, label %.thread62

19:                                               ; preds = %16
  %20 = zext nneg i16 %10 to i64
  %21 = load i16, ptr %13, align 2, !tbaa !102
  fence seq_cst
  %22 = zext i16 %21 to i64
  %23 = getelementptr inbounds nuw [11 x %struct.SessionRow], ptr @SessionCache, i64 0, i64 %20, i32 2, i64 %22
  %24 = getelementptr inbounds nuw i8, ptr %23, i64 148
  %25 = load i8, ptr %24, align 4, !tbaa !77
  %26 = icmp eq i8 %25, 0
  br i1 %26, label %.thread66, label %27

27:                                               ; preds = %19
  %28 = getelementptr inbounds nuw i8, ptr %23, i64 116
  call void @llvm.lifetime.start.p0(i64 64, ptr nonnull %2) #22
  %29 = call i32 @wc_Md5Hash(ptr noundef nonnull %28, i32 noundef 32, ptr noundef nonnull %2) #22
  %30 = icmp eq i32 %29, 0
  br i1 %30, label %32, label %31

31:                                               ; preds = %27
  call void @llvm.lifetime.end.p0(i64 64, ptr nonnull %2) #22
  br label %.thread66

32:                                               ; preds = %27
  %33 = load i8, ptr %2, align 16, !tbaa !43
  %34 = zext i8 %33 to i32
  %35 = shl nuw i32 %34, 24
  %36 = getelementptr inbounds nuw i8, ptr %2, i64 1
  %37 = load i8, ptr %36, align 1, !tbaa !43
  %38 = zext i8 %37 to i32
  %39 = shl nuw nsw i32 %38, 16
  %40 = or disjoint i32 %39, %35
  %41 = getelementptr inbounds nuw i8, ptr %2, i64 2
  %42 = load i8, ptr %41, align 2, !tbaa !43
  %43 = zext i8 %42 to i32
  %44 = shl nuw nsw i32 %43, 8
  %45 = or disjoint i32 %40, %44
  %46 = getelementptr inbounds nuw i8, ptr %2, i64 3
  %47 = load i8, ptr %46, align 1, !tbaa !43
  %48 = zext i8 %47 to i32
  %49 = or disjoint i32 %45, %48
  call void @llvm.lifetime.end.p0(i64 64, ptr nonnull %2) #22
  %50 = getelementptr inbounds nuw i8, ptr %0, i64 4
  %51 = load i32, ptr %50, align 4, !tbaa !111
  %.not70 = icmp eq i32 %51, %49
  %52 = select i1 %.not70, ptr %23, ptr null
  br label %.thread66

.thread66:                                        ; preds = %31, %32, %19
  %spec.select2660 = phi ptr [ null, %19 ], [ null, %31 ], [ %52, %32 ]
  %53 = call i32 @wc_UnLockRwLock(ptr noundef nonnull @session_lock) #22
  br label %.thread62

.thread62:                                        ; preds = %16, %12, %9, %.thread66
  %spec.select2661 = phi ptr [ %spec.select2660, %.thread66 ], [ null, %9 ], [ null, %12 ], [ null, %16 ]
  %54 = call i32 @wc_UnLockMutex(ptr noundef nonnull @clisession_mutex) #22
  br label %55

55:                                               ; preds = %.thread62, %7, %4, %1
  %.021 = phi ptr [ null, %1 ], [ %0, %4 ], [ %spec.select2661, %.thread62 ], [ null, %7 ]
  ret ptr %.021
}